target datalayout = "e-m:e-p270:32:32-p271:32:32-p272:64:64-i64:64-i128:128-f80:128-n8:16:32:64-S128"
target triple = "x86_64-pc-linux-gnu"

%struct.boxf = type { %struct.pointf_s, %struct.pointf_s }
%struct.pointf_s = type { double, double }

; Function Attrs: nounwind uwtable
define void @flip_rec_boxf(ptr dead_on_unwind noalias writable sret(%struct.boxf) align 8 %0, ptr noundef byval(%struct.boxf) align 8 %1, double %2, double %3) #0 {
  %5 = alloca %struct.pointf_s, align 8
  %6 = getelementptr inbounds nuw { double, double }, ptr %5, i32 0, i32 0
  store double %2, ptr %6, align 8
  %7 = getelementptr inbounds nuw { double, double }, ptr %5, i32 0, i32 1
  store double %3, ptr %7, align 8
  %8 = getelementptr inbounds nuw %struct.boxf, ptr %1, i32 0, i32 1
  %9 = getelementptr inbounds nuw %struct.pointf_s, ptr %8, i32 0, i32 1
  %10 = load double, ptr %9, align 8, !tbaa !13
  %11 = getelementptr inbounds nuw %struct.boxf, ptr %0, i32 0, i32 1
  %12 = getelementptr inbounds nuw %struct.pointf_s, ptr %11, i32 0, i32 0
  store double %10, ptr %12, align 8, !tbaa !10
  %13 = getelementptr inbounds nuw %struct.boxf, ptr %1, i32 0, i32 1
  %14 = getelementptr inbounds nuw %struct.pointf_s, ptr %13, i32 0, i32 0
  %15 = load double, ptr %14, align 8, !tbaa !10
  %16 = getelementptr inbounds nuw %struct.boxf, ptr %0, i32 0, i32 1
  %17 = getelementptr inbounds nuw %struct.pointf_s, ptr %16, i32 0, i32 1
  store double %15, ptr %17, align 8, !tbaa !13
  %18 = getelementptr inbounds nuw %struct.boxf, ptr %1, i32 0, i32 0
  %19 = getelementptr inbounds nuw %struct.pointf_s, ptr %18, i32 0, i32 1
  %20 = load double, ptr %19, align 8, !tbaa !11
  %21 = getelementptr inbounds nuw %struct.boxf, ptr %0, i32 0, i32 0
  %22 = getelementptr inbounds nuw %struct.pointf_s, ptr %21, i32 0, i32 0
  store double %20, ptr %22, align 8, !tbaa !3
  %23 = getelementptr inbounds nuw %struct.boxf, ptr %1, i32 0, i32 0
  %24 = getelementptr inbounds nuw %struct.pointf_s, ptr %23, i32 0, i32 0
  %25 = load double, ptr %24, align 8, !tbaa !3
  %26 = getelementptr inbounds nuw %struct.boxf, ptr %0, i32 0, i32 0
  %27 = getelementptr inbounds nuw %struct.pointf_s, ptr %26, i32 0, i32 1
  store double %25, ptr %27, align 8, !tbaa !11
  %28 = getelementptr inbounds nuw %struct.pointf_s, ptr %5, i32 0, i32 0
  %29 = load double, ptr %28, align 8, !tbaa !9
  %30 = getelementptr inbounds nuw %struct.boxf, ptr %0, i32 0, i32 0
  %31 = getelementptr inbounds nuw %struct.pointf_s, ptr %30, i32 0, i32 0
  %32 = load double, ptr %31, align 8, !tbaa !3
  %33 = fadd double %32, %29
  store double %33, ptr %31, align 8, !tbaa !3
  %34 = getelementptr inbounds nuw %struct.pointf_s, ptr %5, i32 0, i32 1
  %35 = load double, ptr %34, align 8, !tbaa !12
  %36 = getelementptr inbounds nuw %struct.boxf, ptr %0, i32 0, i32 0
  %37 = getelementptr inbounds nuw %struct.pointf_s, ptr %36, i32 0, i32 1
  %38 = load double, ptr %37, align 8, !tbaa !11
  %39 = fadd double %38, %35
  store double %39, ptr %37, align 8, !tbaa !11
  %40 = getelementptr inbounds nuw %struct.pointf_s, ptr %5, i32 0, i32 0
  %41 = load double, ptr %40, align 8, !tbaa !9
  %42 = getelementptr inbounds nuw %struct.boxf, ptr %0, i32 0, i32 1
  %43 = getelementptr inbounds nuw %struct.pointf_s, ptr %42, i32 0, i32 0
  %44 = load double, ptr %43, align 8, !tbaa !10
  %45 = fadd double %44, %41
  store double %45, ptr %43, align 8, !tbaa !10
  %46 = getelementptr inbounds nuw %struct.pointf_s, ptr %5, i32 0, i32 1
  %47 = load double, ptr %46, align 8, !tbaa !12
  %48 = getelementptr inbounds nuw %struct.boxf, ptr %0, i32 0, i32 1
  %49 = getelementptr inbounds nuw %struct.pointf_s, ptr %48, i32 0, i32 1
  %50 = load double, ptr %49, align 8, !tbaa !13
  %51 = fadd double %50, %47
  store double %51, ptr %49, align 8, !tbaa !13
  ret void
}