; Function Attrs: mustprogress nofree norecurse nosync nounwind willreturn memory(argmem: readwrite) uwtable
define void @flip_rec_boxf(ptr dead_on_unwind noalias writable writeonly sret(%struct.boxf) align 8 captures(none) initializes((0, 32)) %0, ptr noundef readonly byval(%struct.boxf) align 8 captures(none) %1, double %2, double %3) local_unnamed_addr #2 {
  %5 = getelementptr inbounds nuw i8, ptr %1, i64 16
  %6 = getelementptr inbounds nuw i8, ptr %1, i64 24
  %7 = load double, ptr %6, align 8, !tbaa !15
  %8 = getelementptr inbounds nuw i8, ptr %0, i64 16
  %9 = load double, ptr %5, align 8, !tbaa !16
  %10 = getelementptr inbounds nuw i8, ptr %0, i64 24
  %11 = getelementptr inbounds nuw i8, ptr %1, i64 8
  %12 = load double, ptr %11, align 8, !tbaa !9
  %13 = load double, ptr %1, align 8, !tbaa !3
  %14 = getelementptr inbounds nuw i8, ptr %0, i64 8
  %15 = fadd double %2, %12
  store double %15, ptr %0, align 8, !tbaa !3
  %16 = fadd double %3, %13
  store double %16, ptr %14, align 8, !tbaa !9
  %17 = fadd double %2, %7
  store double %17, ptr %8, align 8, !tbaa !16
  %18 = fadd double %3, %9
  store double %18, ptr %10, align 8, !tbaa !15
  ret void
}